; ModuleID = '21/1864.c'
source_filename = "21/1864.c"
target datalayout = "e-m:e-p270:32:32-p271:32:32-p272:64:64-i64:64-f80:128-n8:16:32:64-S128"
target triple = "x86_64-pc-linux-gnu"

@.str = private unnamed_addr constant [3 x i8] c"%d\00", align 1
@.str.1 = private unnamed_addr constant [6 x i8] c"%d,%d\00", align 1

; Function Attrs: noinline nounwind uwtable
define dso_local void @main() #0 {
  %1 = alloca i32, align 4
  %2 = alloca [400 x i32], align 16
  %3 = alloca i32, align 4
  %4 = alloca i32, align 4
  %5 = alloca i32, align 4
  %6 = alloca i32, align 4
  %7 = alloca i32, align 4
  %8 = alloca float, align 4
  %9 = alloca float, align 4
  %10 = alloca float, align 4
  store i32 0, i32* %3, align 4
  store i32 0, i32* %4, align 4
  store i32 0, i32* %5, align 4
  store i32 0, i32* %6, align 4
  store float 0.000000e+00, float* %8, align 4
  store float 0.000000e+00, float* %10, align 4
  %11 = call i32 (i8*, ...) @__isoc99_scanf(i8* getelementptr inbounds ([3 x i8], [3 x i8]* @.str, i64 0, i64 0), i32* %1)
  store i32 1, i32* %7, align 4
  br label %12

12:                                               ; preds = %28, %0
  %13 = load i32, i32* %7, align 4
  %14 = load i32, i32* %1, align 4
  %15 = icmp sle i32 %13, %14
  br i1 %15, label %16, label %31

16:                                               ; preds = %12
  %17 = load i32, i32* %7, align 4
  %18 = sext i32 %17 to i64
  %19 = getelementptr inbounds [400 x i32], [400 x i32]* %2, i64 0, i64 %18
  %20 = call i32 (i8*, ...) @__isoc99_scanf(i8* getelementptr inbounds ([3 x i8], [3 x i8]* @.str, i64 0, i64 0), i32* %19)
  %21 = load float, float* %8, align 4
  %22 = load i32, i32* %7, align 4
  %23 = sext i32 %22 to i64
  %24 = getelementptr inbounds [400 x i32], [400 x i32]* %2, i64 0, i64 %23
  %25 = load i32, i32* %24, align 4
  %26 = sitofp i32 %25 to float
  %27 = fadd float %21, %26
  store float %27, float* %8, align 4
  br label %28

28:                                               ; preds = %16
  %29 = load i32, i32* %7, align 4
  %30 = add nsw i32 %29, 1
  store i32 %30, i32* %7, align 4
  br label %12

31:                                               ; preds = %12
  %32 = load float, float* %8, align 4
  %33 = load i32, i32* %1, align 4
  %34 = sitofp i32 %33 to float
  %35 = fdiv float %32, %34
  store float %35, float* %9, align 4
  store i32 1, i32* %7, align 4
  br label %36

36:                                               ; preds = %96, %31
  %37 = load i32, i32* %7, align 4
  %38 = load i32, i32* %1, align 4
  %39 = icmp sle i32 %37, %38
  br i1 %39, label %40, label %99

40:                                               ; preds = %36
  %41 = load i32, i32* %7, align 4
  %42 = sext i32 %41 to i64
  %43 = getelementptr inbounds [400 x i32], [400 x i32]* %2, i64 0, i64 %42
  %44 = load i32, i32* %43, align 4
  %45 = sitofp i32 %44 to float
  %46 = load float, float* %9, align 4
  %47 = fsub float %45, %46
  %48 = load float, float* %10, align 4
  %49 = fcmp oge float %47, %48
  br i1 %49, label %61, label %50

50:                                               ; preds = %40
  %51 = load i32, i32* %7, align 4
  %52 = sext i32 %51 to i64
  %53 = getelementptr inbounds [400 x i32], [400 x i32]* %2, i64 0, i64 %52
  %54 = load i32, i32* %53, align 4
  %55 = sitofp i32 %54 to float
  %56 = load float, float* %9, align 4
  %57 = fsub float %55, %56
  %58 = load float, float* %10, align 4
  %59 = fneg float %58
  %60 = fcmp ole float %57, %59
  br i1 %60, label %61, label %95

61:                                               ; preds = %50, %40
  %62 = load i32, i32* %7, align 4
  %63 = sext i32 %62 to i64
  %64 = getelementptr inbounds [400 x i32], [400 x i32]* %2, i64 0, i64 %63
  %65 = load i32, i32* %64, align 4
  %66 = sitofp i32 %65 to float
  %67 = load float, float* %9, align 4
  %68 = fsub float %66, %67
  %69 = fcmp ogt float %68, 0.000000e+00
  br i1 %69, label %70, label %82

70:                                               ; preds = %61
  %71 = load i32, i32* %7, align 4
  %72 = sext i32 %71 to i64
  %73 = getelementptr inbounds [400 x i32], [400 x i32]* %2, i64 0, i64 %72
  %74 = load i32, i32* %73, align 4
  store i32 %74, i32* %5, align 4
  store i32 1, i32* %6, align 4
  %75 = load i32, i32* %7, align 4
  %76 = sext i32 %75 to i64
  %77 = getelementptr inbounds [400 x i32], [400 x i32]* %2, i64 0, i64 %76
  %78 = load i32, i32* %77, align 4
  %79 = sitofp i32 %78 to float
  %80 = load float, float* %9, align 4
  %81 = fsub float %79, %80
  store float %81, float* %10, align 4
  br label %94

82:                                               ; preds = %61
  %83 = load i32, i32* %7, align 4
  %84 = sext i32 %83 to i64
  %85 = getelementptr inbounds [400 x i32], [400 x i32]* %2, i64 0, i64 %84
  %86 = load i32, i32* %85, align 4
  store i32 %86, i32* %3, align 4
  store i32 1, i32* %4, align 4
  %87 = load float, float* %9, align 4
  %88 = load i32, i32* %7, align 4
  %89 = sext i32 %88 to i64
  %90 = getelementptr inbounds [400 x i32], [400 x i32]* %2, i64 0, i64 %89
  %91 = load i32, i32* %90, align 4
  %92 = sitofp i32 %91 to float
  %93 = fsub float %87, %92
  store float %93, float* %10, align 4
  br label %94

94:                                               ; preds = %82, %70
  br label %95

95:                                               ; preds = %94, %50
  br label %96

96:                                               ; preds = %95
  %97 = load i32, i32* %7, align 4
  %98 = add nsw i32 %97, 1
  store i32 %98, i32* %7, align 4
  br label %36

99:                                               ; preds = %36
  %100 = load i32, i32* %4, align 4
  %101 = icmp eq i32 %100, 1
  br i1 %101, label %102, label %108

102:                                              ; preds = %99
  %103 = load i32, i32* %6, align 4
  %104 = icmp eq i32 %103, 0
  br i1 %104, label %105, label %108

105:                                              ; preds = %102
  %106 = load i32, i32* %3, align 4
  %107 = call i32 (i8*, ...) @printf(i8* getelementptr inbounds ([3 x i8], [3 x i8]* @.str, i64 0, i64 0), i32 %106)
  br label %108

108:                                              ; preds = %105, %102, %99
  %109 = load i32, i32* %4, align 4
  %110 = icmp eq i32 %109, 0
  br i1 %110, label %111, label %117

111:                                              ; preds = %108
  %112 = load i32, i32* %6, align 4
  %113 = icmp eq i32 %112, 1
  br i1 %113, label %114, label %117

114:                                              ; preds = %111
  %115 = load i32, i32* %5, align 4
  %116 = call i32 (i8*, ...) @printf(i8* getelementptr inbounds ([3 x i8], [3 x i8]* @.str, i64 0, i64 0), i32 %115)
  br label %117

117:                                              ; preds = %114, %111, %108
  %118 = load i32, i32* %4, align 4
  %119 = icmp eq i32 %118, 1
  br i1 %119, label %120, label %155

120:                                              ; preds = %117
  %121 = load i32, i32* %6, align 4
  %122 = icmp eq i32 %121, 1
  br i1 %122, label %123, label %155

123:                                              ; preds = %120
  %124 = load i32, i32* %5, align 4
  %125 = sitofp i32 %124 to float
  %126 = load float, float* %9, align 4
  %127 = fsub float %125, %126
  %128 = load float, float* %9, align 4
  %129 = load i32, i32* %3, align 4
  %130 = sitofp i32 %129 to float
  %131 = fsub float %128, %130
  %132 = fcmp ogt float %127, %131
  br i1 %132, label %133, label %136

133:                                              ; preds = %123
  %134 = load i32, i32* %5, align 4
  %135 = call i32 (i8*, ...) @printf(i8* getelementptr inbounds ([3 x i8], [3 x i8]* @.str, i64 0, i64 0), i32 %134)
  br label %154

136:                                              ; preds = %123
  %137 = load i32, i32* %5, align 4
  %138 = sitofp i32 %137 to float
  %139 = load float, float* %9, align 4
  %140 = fsub float %138, %139
  %141 = load float, float* %9, align 4
  %142 = load i32, i32* %3, align 4
  %143 = sitofp i32 %142 to float
  %144 = fsub float %141, %143
  %145 = fcmp olt float %140, %144
  br i1 %145, label %146, label %149

146:                                              ; preds = %136
  %147 = load i32, i32* %3, align 4
  %148 = call i32 (i8*, ...) @printf(i8* getelementptr inbounds ([3 x i8], [3 x i8]* @.str, i64 0, i64 0), i32 %147)
  br label %153

149:                                              ; preds = %136
  %150 = load i32, i32* %3, align 4
  %151 = load i32, i32* %5, align 4
  %152 = call i32 (i8*, ...) @printf(i8* getelementptr inbounds ([6 x i8], [6 x i8]* @.str.1, i64 0, i64 0), i32 %150, i32 %151)
  br label %153

153:                                              ; preds = %149, %146
  br label %154

154:                                              ; preds = %153, %133
  br label %155

155:                                              ; preds = %154, %120, %117
  ret void
}

declare dso_local i32 @__isoc99_scanf(i8*, ...) #1

declare dso_local i32 @printf(i8*, ...) #1


!llvm.module.flags = !{!0}
!llvm.ident = !{!1}

!0 = !{i32 1, !"wchar_size", i32 4}
!1 = !{!"clang version 10.0.0-4ubuntu1 "}
